target datalayout = "e-m:e-p270:32:32-p271:32:32-p272:64:64-i64:64-i128:128-f80:128-n8:16:32:64-S128"
target triple = "x86_64-pc-linux-gnu"

%struct.Vec_Str_t_ = type { i32, i32, ptr }

@.str.46 = private unnamed_addr constant [3 x i8] c"wb\00", align 1
@.str.47 = private unnamed_addr constant [36 x i8] c"Cannot open file \22%s\22 for writing.\0A\00", align 1
@.str.61 = private unnamed_addr constant [79 x i8] c"Successfully dumped file \22%s\22 with support data for %d outputs and %d inputs.\0A\00", align 1

; Function Attrs: nounwind uwtable
define internal ptr @Vec_StrArray(ptr noundef %0) #0 {
  %2 = alloca ptr, align 8
  store ptr %0, ptr %2, align 8
  %3 = load ptr, ptr %2, align 8
  %4 = getelementptr inbounds %struct.Vec_Str_t_, ptr %3, i32 0, i32 2
  %5 = load ptr, ptr %4, align 8
  ret ptr %5
}

; Function Attrs: nounwind uwtable
define internal i32 @Vec_StrSize(ptr noundef %0) #0 {
  %2 = alloca ptr, align 8
  store ptr %0, ptr %2, align 8
  %3 = load ptr, ptr %2, align 8
  %4 = getelementptr inbounds %struct.Vec_Str_t_, ptr %3, i32 0, i32 1
  %5 = load i32, ptr %4, align 4
  ret i32 %5
}

; Function Attrs: nounwind uwtable
define internal i32 @Vec_StrCountEntry(ptr noundef %0, i8 noundef signext %1) #0 {
  %3 = alloca ptr, align 8
  %4 = alloca i8, align 1
  %5 = alloca i32, align 4
  %6 = alloca i32, align 4
  store ptr %0, ptr %3, align 8
  store i8 %1, ptr %4, align 1
  store i32 0, ptr %6, align 4
  store i32 0, ptr %5, align 4
  br label %7

7:                                                ; preds = %28, %2
  %8 = load i32, ptr %5, align 4
  %9 = load ptr, ptr %3, align 8
  %10 = getelementptr inbounds %struct.Vec_Str_t_, ptr %9, i32 0, i32 1
  %11 = load i32, ptr %10, align 4
  %12 = icmp slt i32 %8, %11
  br i1 %12, label %13, label %31

13:                                               ; preds = %7
  %14 = load ptr, ptr %3, align 8
  %15 = getelementptr inbounds %struct.Vec_Str_t_, ptr %14, i32 0, i32 2
  %16 = load ptr, ptr %15, align 8
  %17 = load i32, ptr %5, align 4
  %18 = sext i32 %17 to i64
  %19 = getelementptr inbounds i8, ptr %16, i64 %18
  %20 = load i8, ptr %19, align 1
  %21 = sext i8 %20 to i32
  %22 = load i8, ptr %4, align 1
  %23 = sext i8 %22 to i32
  %24 = icmp eq i32 %21, %23
  %25 = zext i1 %24 to i32
  %26 = load i32, ptr %6, align 4
  %27 = add nsw i32 %26, %25
  store i32 %27, ptr %6, align 4
  br label %28

28:                                               ; preds = %13
  %29 = load i32, ptr %5, align 4
  %30 = add nsw i32 %29, 1
  store i32 %30, ptr %5, align 4
  br label %7, !llvm.loop !141

31:                                               ; preds = %7
  %32 = load i32, ptr %6, align 4
  ret i32 %32
}

; Function Attrs: nounwind uwtable
define void @Gia_ManDumpSuppFile(ptr noundef %0, ptr noundef %1) #0 {
  %3 = alloca ptr, align 8
  %4 = alloca ptr, align 8
  %5 = alloca ptr, align 8
  %6 = alloca i32, align 4
  %7 = alloca i32, align 4
  %8 = alloca i32, align 4
  %9 = alloca i32, align 4
  store ptr %0, ptr %3, align 8
  store ptr %1, ptr %4, align 8
  %10 = load ptr, ptr %4, align 8
  %11 = call noalias ptr @fopen(ptr noundef %10, ptr noundef @.str.46)
  store ptr %11, ptr %5, align 8
  %12 = load ptr, ptr %5, align 8
  %13 = icmp eq ptr %12, null
  br i1 %13, label %14, label %17

14:                                               ; preds = %2
  %15 = load ptr, ptr %4, align 8
  %16 = call i32 (ptr, ...) @printf(ptr noundef @.str.47, ptr noundef %15)
  br label %40

17:                                               ; preds = %2
  %18 = load ptr, ptr %3, align 8
  %19 = call i32 @Vec_StrCountEntry(ptr noundef %18, i8 noundef signext 10)
  store i32 %19, ptr %6, align 4
  %20 = load ptr, ptr %3, align 8
  %21 = call i32 @Vec_StrSize(ptr noundef %20)
  %22 = load ptr, ptr %3, align 8
  %23 = call i32 @Vec_StrCountEntry(ptr noundef %22, i8 noundef signext 10)
  %24 = sdiv i32 %21, %23
  %25 = sub nsw i32 %24, 1
  store i32 %25, ptr %7, align 4
  %26 = load ptr, ptr %3, align 8
  %27 = call i32 @Vec_StrSize(ptr noundef %26)
  %28 = sub nsw i32 %27, 1
  store i32 %28, ptr %8, align 4
  %29 = load ptr, ptr %3, align 8
  %30 = call ptr @Vec_StrArray(ptr noundef %29)
  %31 = load i32, ptr %8, align 4
  %32 = sext i32 %31 to i64
  %33 = load ptr, ptr %5, align 8
  %34 = call i64 @fwrite(ptr noundef %30, i64 noundef 1, i64 noundef %32, ptr noundef %33)
  %35 = trunc i64 %34 to i32
  store i32 %35, ptr %9, align 4
  %36 = load ptr, ptr %4, align 8
  %37 = load i32, ptr %6, align 4
  %38 = load i32, ptr %7, align 4
  %39 = call i32 (ptr, ...) @printf(ptr noundef @.str.61, ptr noundef %36, i32 noundef %37, i32 noundef %38)
  br label %40

40:                                               ; preds = %17, %14
  %41 = load ptr, ptr %5, align 8
  %42 = call i32 @fclose(ptr noundef %41)
  ret void
}